target datalayout = "e-m:e-p270:32:32-p271:32:32-p272:64:64-i64:64-i128:128-f80:128-n8:16:32:64-S128"
target triple = "x86_64-unknown-linux-gnu"

%struct.QGuestAllocator = type { i32, i64, i64, i32, ptr, ptr }
%struct.MemBlock = type { %union.anon, i64, i64 }
%union.anon = type { %struct.QTailQLink }
%struct.QTailQLink = type { ptr, ptr }

@.str.1 = private unnamed_addr constant [43 x i8] c"../qemu/tests/qtest/libqos/libqos-malloc.c\00", align 1
@.str.6 = private unnamed_addr constant [3 x i8] c">=\00", align 1
@__func__.mlist_check = private unnamed_addr constant [12 x i8] c"mlist_check\00", align 1
@.str.14 = private unnamed_addr constant [18 x i8] c"node->addr > addr\00", align 1
@.str.15 = private unnamed_addr constant [2 x i8] c">\00", align 1
@.str.16 = private unnamed_addr constant [19 x i8] c"node->addr >= next\00", align 1

; Function Attrs: nounwind sspstrong uwtable
define internal void @mlist_check(ptr noundef %s) #0 {
entry:
  %s.addr = alloca ptr, align 8
  %node = alloca ptr, align 8
  %addr = alloca i64, align 8
  %next = alloca i64, align 8
  %__n1 = alloca i64, align 8
  %__n2 = alloca i64, align 8
  %__n17 = alloca i64, align 8
  %__n29 = alloca i64, align 8
  %__n134 = alloca i64, align 8
  %__n236 = alloca i64, align 8
  %__n146 = alloca i64, align 8
  %__n248 = alloca i64, align 8
  store ptr %s, ptr %s.addr, align 8
  %0 = load ptr, ptr %s.addr, align 8
  %start = getelementptr inbounds %struct.QGuestAllocator, ptr %0, i32 0, i32 1
  %1 = load i64, ptr %start, align 8
  %cmp = icmp ugt i64 %1, 0
  br i1 %cmp, label %cond.true, label %cond.false

cond.true:                                        ; preds = %entry
  %2 = load ptr, ptr %s.addr, align 8
  %start1 = getelementptr inbounds %struct.QGuestAllocator, ptr %2, i32 0, i32 1
  %3 = load i64, ptr %start1, align 8
  %sub = sub i64 %3, 1
  br label %cond.end

cond.false:                                       ; preds = %entry
  br label %cond.end

cond.end:                                         ; preds = %cond.false, %cond.true
  %cond = phi i64 [ %sub, %cond.true ], [ 0, %cond.false ]
  store i64 %cond, ptr %addr, align 8
  %4 = load ptr, ptr %s.addr, align 8
  %start2 = getelementptr inbounds %struct.QGuestAllocator, ptr %4, i32 0, i32 1
  %5 = load i64, ptr %start2, align 8
  store i64 %5, ptr %next, align 8
  %6 = load ptr, ptr %s.addr, align 8
  %free = getelementptr inbounds %struct.QGuestAllocator, ptr %6, i32 0, i32 5
  %7 = load ptr, ptr %free, align 8
  %8 = load ptr, ptr %7, align 8
  store ptr %8, ptr %node, align 8
  br label %for.cond

for.cond:                                         ; preds = %for.inc, %cond.end
  %9 = load ptr, ptr %node, align 8
  %tobool = icmp ne ptr %9, null
  br i1 %tobool, label %for.body, label %for.end

for.body:                                         ; preds = %for.cond
  br label %do.body

do.body:                                          ; preds = %for.body
  %10 = load ptr, ptr %node, align 8
  %addr3 = getelementptr inbounds %struct.MemBlock, ptr %10, i32 0, i32 2
  %11 = load i64, ptr %addr3, align 8
  store i64 %11, ptr %__n1, align 8
  %12 = load i64, ptr %addr, align 8
  store i64 %12, ptr %__n2, align 8
  %13 = load i64, ptr %__n1, align 8
  %14 = load i64, ptr %__n2, align 8
  %cmp4 = icmp sgt i64 %13, %14
  br i1 %cmp4, label %if.then, label %if.else

if.then:                                          ; preds = %do.body
  br label %if.end

if.else:                                          ; preds = %do.body
  %15 = load i64, ptr %__n1, align 8
  %conv = sitofp i64 %15 to x86_fp80
  %16 = load i64, ptr %__n2, align 8
  %conv5 = sitofp i64 %16 to x86_fp80
  call void @g_assertion_message_cmpnum(ptr noundef null, ptr noundef @.str.1, i32 noundef 161, ptr noundef @__func__.mlist_check, ptr noundef @.str.14, x86_fp80 noundef %conv, ptr noundef @.str.15, x86_fp80 noundef %conv5, i8 noundef signext 105)
  br label %if.end

if.end:                                           ; preds = %if.else, %if.then
  br label %do.end

do.end:                                           ; preds = %if.end
  br label %do.body6

do.body6:                                         ; preds = %do.end
  %17 = load ptr, ptr %node, align 8
  %addr8 = getelementptr inbounds %struct.MemBlock, ptr %17, i32 0, i32 2
  %18 = load i64, ptr %addr8, align 8
  store i64 %18, ptr %__n17, align 8
  %19 = load i64, ptr %next, align 8
  store i64 %19, ptr %__n29, align 8
  %20 = load i64, ptr %__n17, align 8
  %21 = load i64, ptr %__n29, align 8
  %cmp10 = icmp sge i64 %20, %21
  br i1 %cmp10, label %if.then12, label %if.else13

if.then12:                                        ; preds = %do.body6
  br label %if.end16

if.else13:                                        ; preds = %do.body6
  %22 = load i64, ptr %__n17, align 8
  %conv14 = sitofp i64 %22 to x86_fp80
  %23 = load i64, ptr %__n29, align 8
  %conv15 = sitofp i64 %23 to x86_fp80
  call void @g_assertion_message_cmpnum(ptr noundef null, ptr noundef @.str.1, i32 noundef 162, ptr noundef @__func__.mlist_check, ptr noundef @.str.16, x86_fp80 noundef %conv14, ptr noundef @.str.6, x86_fp80 noundef %conv15, i8 noundef signext 105)
  br label %if.end16

if.end16:                                         ; preds = %if.else13, %if.then12
  br label %do.end17

do.end17:                                         ; preds = %if.end16
  %24 = load ptr, ptr %node, align 8
  %addr18 = getelementptr inbounds %struct.MemBlock, ptr %24, i32 0, i32 2
  %25 = load i64, ptr %addr18, align 8
  store i64 %25, ptr %addr, align 8
  %26 = load ptr, ptr %node, align 8
  %addr19 = getelementptr inbounds %struct.MemBlock, ptr %26, i32 0, i32 2
  %27 = load i64, ptr %addr19, align 8
  %28 = load ptr, ptr %node, align 8
  %size = getelementptr inbounds %struct.MemBlock, ptr %28, i32 0, i32 1
  %29 = load i64, ptr %size, align 8
  %add = add i64 %27, %29
  store i64 %add, ptr %next, align 8
  br label %for.inc

for.inc:                                          ; preds = %do.end17
  %30 = load ptr, ptr %node, align 8
  %MLIST_ENTNAME = getelementptr inbounds %struct.MemBlock, ptr %30, i32 0, i32 0
  %31 = load ptr, ptr %MLIST_ENTNAME, align 8
  store ptr %31, ptr %node, align 8
  br label %for.cond, !llvm.loop !8

for.end:                                          ; preds = %for.cond
  %32 = load ptr, ptr %s.addr, align 8
  %start20 = getelementptr inbounds %struct.QGuestAllocator, ptr %32, i32 0, i32 1
  %33 = load i64, ptr %start20, align 8
  %cmp21 = icmp ugt i64 %33, 0
  br i1 %cmp21, label %cond.true23, label %cond.false26

cond.true23:                                      ; preds = %for.end
  %34 = load ptr, ptr %s.addr, align 8
  %start24 = getelementptr inbounds %struct.QGuestAllocator, ptr %34, i32 0, i32 1
  %35 = load i64, ptr %start24, align 8
  %sub25 = sub i64 %35, 1
  br label %cond.end27

cond.false26:                                     ; preds = %for.end
  br label %cond.end27

cond.end27:                                       ; preds = %cond.false26, %cond.true23
  %cond28 = phi i64 [ %sub25, %cond.true23 ], [ 0, %cond.false26 ]
  store i64 %cond28, ptr %addr, align 8
  %36 = load ptr, ptr %s.addr, align 8
  %start29 = getelementptr inbounds %struct.QGuestAllocator, ptr %36, i32 0, i32 1
  %37 = load i64, ptr %start29, align 8
  store i64 %37, ptr %next, align 8
  %38 = load ptr, ptr %s.addr, align 8
  %used = getelementptr inbounds %struct.QGuestAllocator, ptr %38, i32 0, i32 4
  %39 = load ptr, ptr %used, align 8
  %40 = load ptr, ptr %39, align 8
  store ptr %40, ptr %node, align 8
  br label %for.cond30

for.cond30:                                       ; preds = %for.inc61, %cond.end27
  %41 = load ptr, ptr %node, align 8
  %tobool31 = icmp ne ptr %41, null
  br i1 %tobool31, label %for.body32, label %for.end63

for.body32:                                       ; preds = %for.cond30
  br label %do.body33

do.body33:                                        ; preds = %for.body32
  %42 = load ptr, ptr %node, align 8
  %addr35 = getelementptr inbounds %struct.MemBlock, ptr %42, i32 0, i32 2
  %43 = load i64, ptr %addr35, align 8
  store i64 %43, ptr %__n134, align 8
  %44 = load i64, ptr %addr, align 8
  store i64 %44, ptr %__n236, align 8
  %45 = load i64, ptr %__n134, align 8
  %46 = load i64, ptr %__n236, align 8
  %cmp37 = icmp sgt i64 %45, %46
  br i1 %cmp37, label %if.then39, label %if.else40

if.then39:                                        ; preds = %do.body33
  br label %if.end43

if.else40:                                        ; preds = %do.body33
  %47 = load i64, ptr %__n134, align 8
  %conv41 = sitofp i64 %47 to x86_fp80
  %48 = load i64, ptr %__n236, align 8
  %conv42 = sitofp i64 %48 to x86_fp80
  call void @g_assertion_message_cmpnum(ptr noundef null, ptr noundef @.str.1, i32 noundef 170, ptr noundef @__func__.mlist_check, ptr noundef @.str.14, x86_fp80 noundef %conv41, ptr noundef @.str.15, x86_fp80 noundef %conv42, i8 noundef signext 105)
  br label %if.end43

if.end43:                                         ; preds = %if.else40, %if.then39
  br label %do.end44

do.end44:                                         ; preds = %if.end43
  br label %do.body45

do.body45:                                        ; preds = %do.end44
  %49 = load ptr, ptr %node, align 8
  %addr47 = getelementptr inbounds %struct.MemBlock, ptr %49, i32 0, i32 2
  %50 = load i64, ptr %addr47, align 8
  store i64 %50, ptr %__n146, align 8
  %51 = load i64, ptr %next, align 8
  store i64 %51, ptr %__n248, align 8
  %52 = load i64, ptr %__n146, align 8
  %53 = load i64, ptr %__n248, align 8
  %cmp49 = icmp sge i64 %52, %53
  br i1 %cmp49, label %if.then51, label %if.else52

if.then51:                                        ; preds = %do.body45
  br label %if.end55

if.else52:                                        ; preds = %do.body45
  %54 = load i64, ptr %__n146, align 8
  %conv53 = sitofp i64 %54 to x86_fp80
  %55 = load i64, ptr %__n248, align 8
  %conv54 = sitofp i64 %55 to x86_fp80
  call void @g_assertion_message_cmpnum(ptr noundef null, ptr noundef @.str.1, i32 noundef 171, ptr noundef @__func__.mlist_check, ptr noundef @.str.16, x86_fp80 noundef %conv53, ptr noundef @.str.6, x86_fp80 noundef %conv54, i8 noundef signext 105)
  br label %if.end55

if.end55:                                         ; preds = %if.else52, %if.then51
  br label %do.end56

do.end56:                                         ; preds = %if.end55
  %56 = load ptr, ptr %node, align 8
  %addr57 = getelementptr inbounds %struct.MemBlock, ptr %56, i32 0, i32 2
  %57 = load i64, ptr %addr57, align 8
  store i64 %57, ptr %addr, align 8
  %58 = load ptr, ptr %node, align 8
  %addr58 = getelementptr inbounds %struct.MemBlock, ptr %58, i32 0, i32 2
  %59 = load i64, ptr %addr58, align 8
  %60 = load ptr, ptr %node, align 8
  %size59 = getelementptr inbounds %struct.MemBlock, ptr %60, i32 0, i32 1
  %61 = load i64, ptr %size59, align 8
  %add60 = add i64 %59, %61
  store i64 %add60, ptr %next, align 8
  br label %for.inc61

for.inc61:                                        ; preds = %do.end56
  %62 = load ptr, ptr %node, align 8
  %MLIST_ENTNAME62 = getelementptr inbounds %struct.MemBlock, ptr %62, i32 0, i32 0
  %63 = load ptr, ptr %MLIST_ENTNAME62, align 8
  store ptr %63, ptr %node, align 8
  br label %for.cond30, !llvm.loop !9

for.end63:                                        ; preds = %for.cond30
  ret void
}